target datalayout = "e-m:e-p270:32:32-p271:32:32-p272:64:64-i64:64-i128:128-f80:128-n8:16:32:64-S128"
target triple = "x86_64-pc-linux-gnu"

%"class.pxrInternal_v0_24__pxrReserved__::Vt_ArrayBase" = type { %"struct.pxrInternal_v0_24__pxrReserved__::Vt_ShapeData", ptr }
%"struct.pxrInternal_v0_24__pxrReserved__::Vt_ShapeData" = type { i64, [3 x i32] }
%"class.pxrInternal_v0_24__pxrReserved__::VtArray.105" = type { %"class.pxrInternal_v0_24__pxrReserved__::Vt_ArrayBase", ptr }
%"class.pxrInternal_v0_24__pxrReserved__::GfVec3f" = type { [3 x float] }
%"class.pxrInternal_v0_24__pxrReserved__::GfQuatf" = type { %"class.pxrInternal_v0_24__pxrReserved__::GfVec3f", float }

@.str.80 = private unnamed_addr constant [6 x i8] c"quatf\00", align 1

; Function Attrs: mustprogress nounwind uwtable
define linkonce_odr dso_local void @_ZN32pxrInternal_v0_24__pxrReserved__7GfQuatfC2EfRKNS_7GfVec3fE(ptr noundef nonnull align 4 dereferenceable(16) %0, float noundef %1, ptr noundef nonnull align 4 dereferenceable(12) %2) unnamed_addr #5 comdat align 2 {
  %4 = alloca ptr, align 8
  %5 = alloca float, align 4
  %6 = alloca ptr, align 8
  store ptr %0, ptr %4, align 8
  store float %1, ptr %5, align 4
  store ptr %2, ptr %6, align 8
  %7 = load ptr, ptr %4, align 8
  %8 = getelementptr inbounds nuw %"class.pxrInternal_v0_24__pxrReserved__::GfQuatf", ptr %7, i32 0, i32 0
  %9 = load ptr, ptr %6, align 8
  call void @llvm.memcpy.p0.p0.i64(ptr align 4 %8, ptr align 4 %9, i64 12, i1 false)
  %10 = getelementptr inbounds nuw %"class.pxrInternal_v0_24__pxrReserved__::GfQuatf", ptr %7, i32 0, i32 1
  %11 = load float, ptr %5, align 4
  store float %11, ptr %10, align 4
  ret void
}

; Function Attrs: mustprogress nounwind uwtable
define linkonce_odr dso_local void @_ZN32pxrInternal_v0_24__pxrReserved__7GfVec3fC2Ef(ptr noundef nonnull align 4 dereferenceable(12) %0, float noundef %1) unnamed_addr #5 comdat align 2 {
  %3 = alloca ptr, align 8
  %4 = alloca float, align 4
  store ptr %0, ptr %3, align 8
  store float %1, ptr %4, align 4
  %5 = load ptr, ptr %3, align 8
  %6 = getelementptr inbounds nuw %"class.pxrInternal_v0_24__pxrReserved__::GfVec3f", ptr %5, i32 0, i32 0
  %7 = load float, ptr %4, align 4
  store float %7, ptr %6, align 4
  %8 = getelementptr inbounds float, ptr %6, i64 1
  %9 = load float, ptr %4, align 4
  store float %9, ptr %8, align 4
  %10 = getelementptr inbounds float, ptr %6, i64 2
  %11 = load float, ptr %4, align 4
  store float %11, ptr %10, align 4
  ret void
}

; Function Attrs: mustprogress uwtable
define dso_local void @_Z7GetInfoIN32pxrInternal_v0_24__pxrReserved__7GfQuatfEEvPNS0_7VtArrayIT_EEPNSt7__cxx1112basic_stringIcSt11char_traitsIcESaIcEEE(ptr noundef %0, ptr noundef %1) #4 personality ptr @__gxx_personality_v0 {
  %3 = alloca ptr, align 8
  %4 = alloca ptr, align 8
  %5 = alloca %"class.pxrInternal_v0_24__pxrReserved__::VtArray.105", align 8
  %6 = alloca ptr, align 8
  %7 = alloca i32, align 4
  %8 = alloca %"class.pxrInternal_v0_24__pxrReserved__::GfQuatf", align 4
  %9 = alloca %"class.pxrInternal_v0_24__pxrReserved__::GfVec3f", align 4
  %10 = alloca %"class.pxrInternal_v0_24__pxrReserved__::GfQuatf", align 4
  %11 = alloca %"class.pxrInternal_v0_24__pxrReserved__::GfVec3f", align 4
  %12 = alloca %"class.pxrInternal_v0_24__pxrReserved__::GfQuatf", align 4
  %13 = alloca %"class.pxrInternal_v0_24__pxrReserved__::GfVec3f", align 4
  store ptr %0, ptr %3, align 8
  store ptr %1, ptr %4, align 8
  %14 = load ptr, ptr %4, align 8
  %15 = call noundef nonnull align 8 dereferenceable(32) ptr @_ZNSt7__cxx1112basic_stringIcSt11char_traitsIcESaIcEEaSEPKc(ptr noundef nonnull align 8 dereferenceable(32) %14, ptr noundef @.str.80)
  call void @_ZN32pxrInternal_v0_24__pxrReserved__7VtArrayINS_7GfQuatfEEC1Em(ptr noundef nonnull align 8 dereferenceable(40) %5, i64 noundef 3)
  %16 = load ptr, ptr %3, align 8
  %17 = invoke noundef nonnull align 8 dereferenceable(40) ptr @_ZN32pxrInternal_v0_24__pxrReserved__7VtArrayINS_7GfQuatfEEaSEOS2_(ptr noundef nonnull align 8 dereferenceable(40) %16, ptr noundef nonnull align 8 dereferenceable(40) %5)
          to label %18 unwind label %25

18:                                               ; preds = %2
  call void @_ZN32pxrInternal_v0_24__pxrReserved__7VtArrayINS_7GfQuatfEED1Ev(ptr noundef nonnull align 8 dereferenceable(40) %5) #3
  call void @_ZN32pxrInternal_v0_24__pxrReserved__7GfVec3fC2Ef(ptr noundef nonnull align 4 dereferenceable(12) %9, float noundef 1.000000e+00)
  call void @_ZN32pxrInternal_v0_24__pxrReserved__7GfQuatfC2EfRKNS_7GfVec3fE(ptr noundef nonnull align 4 dereferenceable(16) %8, float noundef 1.000000e+00, ptr noundef nonnull align 4 dereferenceable(12) %9)
  %19 = load ptr, ptr %3, align 8
  %20 = call noundef nonnull align 4 dereferenceable(16) ptr @_ZN32pxrInternal_v0_24__pxrReserved__7VtArrayINS_7GfQuatfEEixEm(ptr noundef nonnull align 8 dereferenceable(40) %19, i64 noundef 0)
  call void @llvm.memcpy.p0.p0.i64(ptr align 4 %20, ptr align 4 %8, i64 16, i1 false)
  call void @_ZN32pxrInternal_v0_24__pxrReserved__7GfVec3fC2Ef(ptr noundef nonnull align 4 dereferenceable(12) %11, float noundef 2.000000e+00)
  call void @_ZN32pxrInternal_v0_24__pxrReserved__7GfQuatfC2EfRKNS_7GfVec3fE(ptr noundef nonnull align 4 dereferenceable(16) %10, float noundef 2.000000e+00, ptr noundef nonnull align 4 dereferenceable(12) %11)
  %21 = load ptr, ptr %3, align 8
  %22 = call noundef nonnull align 4 dereferenceable(16) ptr @_ZN32pxrInternal_v0_24__pxrReserved__7VtArrayINS_7GfQuatfEEixEm(ptr noundef nonnull align 8 dereferenceable(40) %21, i64 noundef 1)
  call void @llvm.memcpy.p0.p0.i64(ptr align 4 %22, ptr align 4 %10, i64 16, i1 false)
  call void @_ZN32pxrInternal_v0_24__pxrReserved__7GfVec3fC2Ef(ptr noundef nonnull align 4 dereferenceable(12) %13, float noundef 3.000000e+00)
  call void @_ZN32pxrInternal_v0_24__pxrReserved__7GfQuatfC2EfRKNS_7GfVec3fE(ptr noundef nonnull align 4 dereferenceable(16) %12, float noundef 3.000000e+00, ptr noundef nonnull align 4 dereferenceable(12) %13)
  %23 = load ptr, ptr %3, align 8
  %24 = call noundef nonnull align 4 dereferenceable(16) ptr @_ZN32pxrInternal_v0_24__pxrReserved__7VtArrayINS_7GfQuatfEEixEm(ptr noundef nonnull align 8 dereferenceable(40) %23, i64 noundef 2)
  call void @llvm.memcpy.p0.p0.i64(ptr align 4 %24, ptr align 4 %12, i64 16, i1 false)
  ret void

25:                                               ; preds = %2
  %26 = landingpad { ptr, i32 }
          cleanup
  %27 = extractvalue { ptr, i32 } %26, 0
  store ptr %27, ptr %6, align 8
  %28 = extractvalue { ptr, i32 } %26, 1
  store i32 %28, ptr %7, align 4
  call void @_ZN32pxrInternal_v0_24__pxrReserved__7VtArrayINS_7GfQuatfEED1Ev(ptr noundef nonnull align 8 dereferenceable(40) %5) #3
  br label %29

29:                                               ; preds = %25
  %30 = load ptr, ptr %6, align 8
  %31 = load i32, ptr %7, align 4
  %32 = insertvalue { ptr, i32 } poison, ptr %30, 0
  %33 = insertvalue { ptr, i32 } %32, i32 %31, 1
  resume { ptr, i32 } %33
}